; Function Attrs: null_pointer_is_valid sspstrong uwtable
define internal void @wspstat_reset(ptr noundef readonly captures(none) %0) #0 {
  %2 = getelementptr inbounds nuw i8, ptr %0, i64 16
  %3 = load i32, ptr %2, align 8
  %.not6 = icmp eq i32 %3, 0
  br i1 %.not6, label %._crit_edge, label %.lr.ph

.lr.ph:                                           ; preds = %1
  %4 = getelementptr inbounds nuw i8, ptr %0, i64 8
  br label %5

5:                                                ; preds = %.lr.ph, %5
  %.07 = phi i32 [ 1, %.lr.ph ], [ %9, %5 ]
  %6 = load ptr, ptr %4, align 8
  %7 = zext i32 %.07 to i64
  %8 = getelementptr %struct._wsp_pdu_t, ptr %6, i64 %7, i32 1
  store i32 0, ptr %8, align 8
  %9 = add i32 %.07, 1
  %10 = load i32, ptr %2, align 8
  %.not = icmp ugt i32 %9, %10
  br i1 %.not, label %._crit_edge, label %5, !llvm.loop !10

._crit_edge:                                      ; preds = %5, %1
  %11 = getelementptr inbounds nuw i8, ptr %0, i64 24
  %12 = load ptr, ptr %11, align 8
  tail call void @g_hash_table_foreach(ptr noundef %12, ptr noundef nonnull @wsp_reset_hash, ptr noundef null)
  ret void
}